target datalayout = "e-m:e-p270:32:32-p271:32:32-p272:64:64-i64:64-i128:128-f80:128-n8:16:32:64-S128"
target triple = "x86_64-unknown-linux-gnu"

%"class.icu_75::FormattedValue" = type { ptr }
%"class.icu_75::number::impl::DecNum" = type { %"class.icu_75::MaybeStackHeaderAndArray", %struct.decContext, [4 x i8] }
%"class.icu_75::MaybeStackHeaderAndArray" = type <{ ptr, i32, i8, [3 x i8], %struct.decNumber, [34 x i8], [2 x i8] }>
%struct.decNumber = type { i32, i32, i8, [1 x i8] }
%struct.decContext = type { i32, i32, i32, i32, i32, i32, i8 }
%"class.icu_75::FormattedValueStringBuilderImpl.base" = type <{ %"class.icu_75::FormattedValue", %"class.icu_75::FormattedStringBuilder", %"struct.icu_75::FormattedStringBuilder::Field", [7 x i8], %"class.icu_75::MaybeStackArray.2", i32 }>
%"class.icu_75::FormattedStringBuilder" = type { i8, %"union.icu_75::FormattedStringBuilder::ValueOrHeapArray", %"union.icu_75::FormattedStringBuilder::ValueOrHeapArray.0", i32, i32 }
%"union.icu_75::FormattedStringBuilder::ValueOrHeapArray" = type { %struct.anon, [64 x i8] }
%struct.anon = type { ptr, i32 }
%"union.icu_75::FormattedStringBuilder::ValueOrHeapArray.0" = type { %struct.anon.1, [24 x i8] }
%struct.anon.1 = type { ptr, i32 }
%"struct.icu_75::FormattedStringBuilder::Field" = type { i8 }
%"class.icu_75::MaybeStackArray.2" = type { ptr, i32, i8, [8 x %"struct.icu_75::SpanInfo"] }
%"struct.icu_75::SpanInfo" = type { i32, i32, i32, i32 }
%"class.icu_75::number::impl::DecimalQuantity" = type <{ %"class.icu_75::IFixedDecimal", i8, [3 x i8], i32, i32, i8, i8, [2 x i8], double, i32, i32, i32, i32, %union.anon, i8, i8, [6 x i8] }>
%"class.icu_75::IFixedDecimal" = type { ptr }
%union.anon = type { %struct.anon.3 }
%struct.anon.3 = type { ptr, i32 }
%"class.icu_75::number::FormattedNumberRange" = type <{ %"class.icu_75::FormattedValue", ptr, i32, [4 x i8] }>
%"class.icu_75::number::impl::UFormattedNumberRangeData" = type { %"class.icu_75::FormattedValueStringBuilderImpl.base", [4 x i8], %"class.icu_75::number::impl::DecimalQuantity", %"class.icu_75::number::impl::DecimalQuantity", i32, [4 x i8] }

; Function Attrs: mustprogress nounwind uwtable
define internal noundef signext i8 @_ZL9U_FAILURE10UErrorCode(i32 noundef %code) #0 {
entry:
  %code.addr = alloca i32, align 4
  store i32 %code, ptr %code.addr, align 4
  %0 = load i32, ptr %code.addr, align 4
  %cmp = icmp sgt i32 %0, 0
  %conv = zext i1 %cmp to i8
  ret i8 %conv
}

; Function Attrs: mustprogress uwtable
define void @_ZNK6icu_756number20FormattedNumberRange17getDecimalNumbersERNS_8ByteSinkES3_R10UErrorCode(ptr noundef nonnull align 8 dereferenceable(20) %this, ptr noundef nonnull align 8 dereferenceable(8) %sink1, ptr noundef nonnull align 8 dereferenceable(8) %sink2, ptr noundef nonnull align 4 dereferenceable(4) %status) #1 align 2 personality ptr @__gxx_personality_v0 {
entry:
  %this.addr = alloca ptr, align 8
  %sink1.addr = alloca ptr, align 8
  %sink2.addr = alloca ptr, align 8
  %status.addr = alloca ptr, align 8
  %decnum1 = alloca %"class.icu_75::number::impl::DecNum", align 8
  %decnum2 = alloca %"class.icu_75::number::impl::DecNum", align 8
  %exn.slot = alloca ptr, align 8
  %ehselector.slot = alloca i32, align 4
  store ptr %this, ptr %this.addr, align 8
  store ptr %sink1, ptr %sink1.addr, align 8
  store ptr %sink2, ptr %sink2.addr, align 8
  store ptr %status, ptr %status.addr, align 8
  %this1 = load ptr, ptr %this.addr, align 8
  %0 = load ptr, ptr %status.addr, align 8
  %1 = load i32, ptr %0, align 4
  %call = call noundef signext i8 @_ZL9U_FAILURE10UErrorCode(i32 noundef %1)
  %tobool = icmp ne i8 %call, 0
  br i1 %tobool, label %if.then, label %if.end

if.then:                                          ; preds = %entry
  br label %return

if.end:                                           ; preds = %entry
  %fData = getelementptr inbounds %"class.icu_75::number::FormattedNumberRange", ptr %this1, i32 0, i32 1
  %2 = load ptr, ptr %fData, align 8
  %cmp = icmp eq ptr %2, null
  br i1 %cmp, label %if.then2, label %if.end3

if.then2:                                         ; preds = %if.end
  %fErrorCode = getelementptr inbounds %"class.icu_75::number::FormattedNumberRange", ptr %this1, i32 0, i32 2
  %3 = load i32, ptr %fErrorCode, align 8
  %4 = load ptr, ptr %status.addr, align 8
  store i32 %3, ptr %4, align 4
  br label %return

if.end3:                                          ; preds = %if.end
  call void @_ZN6icu_756number4impl6DecNumC1Ev(ptr noundef nonnull align 8 dereferenceable(92) %decnum1)
  invoke void @_ZN6icu_756number4impl6DecNumC1Ev(ptr noundef nonnull align 8 dereferenceable(92) %decnum2)
          to label %invoke.cont unwind label %lpad

invoke.cont:                                      ; preds = %if.end3
  %fData4 = getelementptr inbounds %"class.icu_75::number::FormattedNumberRange", ptr %this1, i32 0, i32 1
  %5 = load ptr, ptr %fData4, align 8
  %quantity1 = getelementptr inbounds %"class.icu_75::number::impl::UFormattedNumberRangeData", ptr %5, i32 0, i32 2
  %6 = load ptr, ptr %status.addr, align 8
  %call7 = invoke noundef nonnull align 8 dereferenceable(92) ptr @_ZNK6icu_756number4impl15DecimalQuantity8toDecNumERNS1_6DecNumER10UErrorCode(ptr noundef nonnull align 8 dereferenceable(66) %quantity1, ptr noundef nonnull align 8 dereferenceable(92) %decnum1, ptr noundef nonnull align 4 dereferenceable(4) %6)
          to label %invoke.cont6 unwind label %lpad5

invoke.cont6:                                     ; preds = %invoke.cont
  %7 = load ptr, ptr %sink1.addr, align 8
  %8 = load ptr, ptr %status.addr, align 8
  invoke void @_ZNK6icu_756number4impl6DecNum8toStringERNS_8ByteSinkER10UErrorCode(ptr noundef nonnull align 8 dereferenceable(92) %call7, ptr noundef nonnull align 8 dereferenceable(8) %7, ptr noundef nonnull align 4 dereferenceable(4) %8)
          to label %invoke.cont8 unwind label %lpad5

invoke.cont8:                                     ; preds = %invoke.cont6
  %fData9 = getelementptr inbounds %"class.icu_75::number::FormattedNumberRange", ptr %this1, i32 0, i32 1
  %9 = load ptr, ptr %fData9, align 8
  %quantity2 = getelementptr inbounds %"class.icu_75::number::impl::UFormattedNumberRangeData", ptr %9, i32 0, i32 3
  %10 = load ptr, ptr %status.addr, align 8
  %call11 = invoke noundef nonnull align 8 dereferenceable(92) ptr @_ZNK6icu_756number4impl15DecimalQuantity8toDecNumERNS1_6DecNumER10UErrorCode(ptr noundef nonnull align 8 dereferenceable(66) %quantity2, ptr noundef nonnull align 8 dereferenceable(92) %decnum2, ptr noundef nonnull align 4 dereferenceable(4) %10)
          to label %invoke.cont10 unwind label %lpad5

invoke.cont10:                                    ; preds = %invoke.cont8
  %11 = load ptr, ptr %sink2.addr, align 8
  %12 = load ptr, ptr %status.addr, align 8
  invoke void @_ZNK6icu_756number4impl6DecNum8toStringERNS_8ByteSinkER10UErrorCode(ptr noundef nonnull align 8 dereferenceable(92) %call11, ptr noundef nonnull align 8 dereferenceable(8) %11, ptr noundef nonnull align 4 dereferenceable(4) %12)
          to label %invoke.cont12 unwind label %lpad5

invoke.cont12:                                    ; preds = %invoke.cont10
  call void @_ZN6icu_756number4impl6DecNumD2Ev(ptr noundef nonnull align 8 dereferenceable(92) %decnum2) #7
  call void @_ZN6icu_756number4impl6DecNumD2Ev(ptr noundef nonnull align 8 dereferenceable(92) %decnum1) #7
  br label %return

return:                                           ; preds = %invoke.cont12, %if.then2, %if.then
  ret void

lpad:                                             ; preds = %if.end3
  %13 = landingpad { ptr, i32 }
          cleanup
  %14 = extractvalue { ptr, i32 } %13, 0
  store ptr %14, ptr %exn.slot, align 8
  %15 = extractvalue { ptr, i32 } %13, 1
  store i32 %15, ptr %ehselector.slot, align 4
  br label %ehcleanup

lpad5:                                            ; preds = %invoke.cont10, %invoke.cont8, %invoke.cont6, %invoke.cont
  %16 = landingpad { ptr, i32 }
          cleanup
  %17 = extractvalue { ptr, i32 } %16, 0
  store ptr %17, ptr %exn.slot, align 8
  %18 = extractvalue { ptr, i32 } %16, 1
  store i32 %18, ptr %ehselector.slot, align 4
  call void @_ZN6icu_756number4impl6DecNumD2Ev(ptr noundef nonnull align 8 dereferenceable(92) %decnum2) #7
  br label %ehcleanup

ehcleanup:                                        ; preds = %lpad5, %lpad
  call void @_ZN6icu_756number4impl6DecNumD2Ev(ptr noundef nonnull align 8 dereferenceable(92) %decnum1) #7
  br label %eh.resume

eh.resume:                                        ; preds = %ehcleanup
  %exn = load ptr, ptr %exn.slot, align 8
  %sel = load i32, ptr %ehselector.slot, align 4
  %lpad.val = insertvalue { ptr, i32 } poison, ptr %exn, 0
  %lpad.val13 = insertvalue { ptr, i32 } %lpad.val, i32 %sel, 1
  resume { ptr, i32 } %lpad.val13
}