; Function Attrs: mustprogress uwtable
define void @_ZNK6icu_756number20FormattedNumberRange17getDecimalNumbersERNS_8ByteSinkES3_R10UErrorCode(ptr nocapture noundef nonnull readonly align 8 dereferenceable(20) %this, ptr noundef nonnull align 8 dereferenceable(8) %sink1, ptr noundef nonnull align 8 dereferenceable(8) %sink2, ptr noundef nonnull align 4 dereferenceable(4) %status) local_unnamed_addr #1 align 2 personality ptr @__gxx_personality_v0 {
entry:
  %decnum1 = alloca %"class.icu_75::number::impl::DecNum", align 8
  %decnum2 = alloca %"class.icu_75::number::impl::DecNum", align 8
  %0 = load i32, ptr %status, align 4
  %cmp.i = icmp slt i32 %0, 1
  br i1 %cmp.i, label %if.end, label %return

if.end:                                           ; preds = %entry
  %fData = getelementptr inbounds i8, ptr %this, i64 8
  %1 = load ptr, ptr %fData, align 8
  %cmp = icmp eq ptr %1, null
  br i1 %cmp, label %if.then2, label %if.end3

if.then2:                                         ; preds = %if.end
  %fErrorCode = getelementptr inbounds i8, ptr %this, i64 16
  %2 = load i32, ptr %fErrorCode, align 8
  store i32 %2, ptr %status, align 4
  br label %return

if.end3:                                          ; preds = %if.end
  call void @_ZN6icu_756number4impl6DecNumC1Ev(ptr noundef nonnull align 8 dereferenceable(92) %decnum1)
  invoke void @_ZN6icu_756number4impl6DecNumC1Ev(ptr noundef nonnull align 8 dereferenceable(92) %decnum2)
          to label %invoke.cont unwind label %lpad

invoke.cont:                                      ; preds = %if.end3
  %3 = load ptr, ptr %fData, align 8
  %quantity1 = getelementptr inbounds i8, ptr %3, i64 304
  %call7 = invoke noundef nonnull align 8 dereferenceable(92) ptr @_ZNK6icu_756number4impl15DecimalQuantity8toDecNumERNS1_6DecNumER10UErrorCode(ptr noundef nonnull align 8 dereferenceable(66) %quantity1, ptr noundef nonnull align 8 dereferenceable(92) %decnum1, ptr noundef nonnull align 4 dereferenceable(4) %status)
          to label %invoke.cont6 unwind label %lpad5

invoke.cont6:                                     ; preds = %invoke.cont
  invoke void @_ZNK6icu_756number4impl6DecNum8toStringERNS_8ByteSinkER10UErrorCode(ptr noundef nonnull align 8 dereferenceable(92) %call7, ptr noundef nonnull align 8 dereferenceable(8) %sink1, ptr noundef nonnull align 4 dereferenceable(4) %status)
          to label %invoke.cont8 unwind label %lpad5

invoke.cont8:                                     ; preds = %invoke.cont6
  %4 = load ptr, ptr %fData, align 8
  %quantity2 = getelementptr inbounds i8, ptr %4, i64 376
  %call11 = invoke noundef nonnull align 8 dereferenceable(92) ptr @_ZNK6icu_756number4impl15DecimalQuantity8toDecNumERNS1_6DecNumER10UErrorCode(ptr noundef nonnull align 8 dereferenceable(66) %quantity2, ptr noundef nonnull align 8 dereferenceable(92) %decnum2, ptr noundef nonnull align 4 dereferenceable(4) %status)
          to label %invoke.cont10 unwind label %lpad5

invoke.cont10:                                    ; preds = %invoke.cont8
  invoke void @_ZNK6icu_756number4impl6DecNum8toStringERNS_8ByteSinkER10UErrorCode(ptr noundef nonnull align 8 dereferenceable(92) %call11, ptr noundef nonnull align 8 dereferenceable(8) %sink2, ptr noundef nonnull align 4 dereferenceable(4) %status)
          to label %invoke.cont12 unwind label %lpad5

invoke.cont12:                                    ; preds = %invoke.cont10
  %needToRelease.i.i.i = getelementptr inbounds i8, ptr %decnum2, i64 12
  %5 = load i8, ptr %needToRelease.i.i.i, align 4
  %tobool.not.i.i.i = icmp eq i8 %5, 0
  br i1 %tobool.not.i.i.i, label %_ZN6icu_756number4impl6DecNumD2Ev.exit, label %if.then.i.i.i

if.then.i.i.i:                                    ; preds = %invoke.cont12
  %6 = load ptr, ptr %decnum2, align 8
  invoke void @uprv_free_75(ptr noundef %6)
          to label %_ZN6icu_756number4impl6DecNumD2Ev.exit unwind label %terminate.lpad.i.i

terminate.lpad.i.i:                               ; preds = %if.then.i.i.i
  %7 = landingpad { ptr, i32 }
          catch ptr null
  %8 = extractvalue { ptr, i32 } %7, 0
  call void @__clang_call_terminate(ptr %8) #12
  unreachable

_ZN6icu_756number4impl6DecNumD2Ev.exit:           ; preds = %invoke.cont12, %if.then.i.i.i
  %needToRelease.i.i.i7 = getelementptr inbounds i8, ptr %decnum1, i64 12
  %9 = load i8, ptr %needToRelease.i.i.i7, align 4
  %tobool.not.i.i.i8 = icmp eq i8 %9, 0
  br i1 %tobool.not.i.i.i8, label %return, label %if.then.i.i.i9

if.then.i.i.i9:                                   ; preds = %_ZN6icu_756number4impl6DecNumD2Ev.exit
  %10 = load ptr, ptr %decnum1, align 8
  invoke void @uprv_free_75(ptr noundef %10)
          to label %return unwind label %terminate.lpad.i.i10

terminate.lpad.i.i10:                             ; preds = %if.then.i.i.i9
  %11 = landingpad { ptr, i32 }
          catch ptr null
  %12 = extractvalue { ptr, i32 } %11, 0
  call void @__clang_call_terminate(ptr %12) #12
  unreachable

return:                                           ; preds = %if.then.i.i.i9, %_ZN6icu_756number4impl6DecNumD2Ev.exit, %entry, %if.then2
  ret void

lpad:                                             ; preds = %if.end3
  %13 = landingpad { ptr, i32 }
          cleanup
  br label %ehcleanup

lpad5:                                            ; preds = %invoke.cont10, %invoke.cont8, %invoke.cont6, %invoke.cont
  %14 = landingpad { ptr, i32 }
          cleanup
  call void @_ZN6icu_756number4impl6DecNumD2Ev(ptr noundef nonnull align 8 dereferenceable(92) %decnum2) #10
  br label %ehcleanup

ehcleanup:                                        ; preds = %lpad5, %lpad
  %.pn = phi { ptr, i32 } [ %14, %lpad5 ], [ %13, %lpad ]
  call void @_ZN6icu_756number4impl6DecNumD2Ev(ptr noundef nonnull align 8 dereferenceable(92) %decnum1) #10
  resume { ptr, i32 } %.pn
}